target datalayout = "e-m:e-p270:32:32-p271:32:32-p272:64:64-i64:64-i128:128-f80:128-n8:16:32:64-S128"
target triple = "x86_64-pc-linux-gnu"

%struct._CvImageWidget = type { %struct._GtkWidget, ptr, ptr, i32 }
%struct._GtkWidget = type { %struct._GObject, ptr }
%struct._GObject = type { %struct._GTypeInstance, i32, ptr }
%struct._GTypeInstance = type { ptr }
%struct._GTypeClass = type { i64 }
%struct.CvMat = type { i32, i32, ptr, i32, %union.anon.18, %union.anon.19, %union.anon.20 }
%union.anon.18 = type { ptr }
%union.anon.19 = type { i32 }
%union.anon.20 = type { i32 }

@_ZZ22cvImageWidget_get_typevE10image_type = internal global i64 0, align 8
@.str.2 = private unnamed_addr constant [14 x i8] c"CvImageWidget\00", align 1
@.str.20 = private unnamed_addr constant [15 x i8] c"widget != NULL\00", align 1
@.str.21 = private unnamed_addr constant [28 x i8] c"CV_IS_IMAGE_WIDGET (widget)\00", align 1
@__PRETTY_FUNCTION__._ZL18cvImageWidget_drawP10_GtkWidgetP6_cairoPv = private unnamed_addr constant [62 x i8] c"gboolean cvImageWidget_draw(GtkWidget *, cairo_t *, gpointer)\00", align 1

; Function Attrs: mustprogress uwtable
define hidden noundef i64 @_Z22cvImageWidget_get_typev() #4 {
  %1 = load i64, ptr @_ZZ22cvImageWidget_get_typevE10image_type, align 8, !tbaa !21
  %2 = icmp ne i64 %1, 0
  br i1 %2, label %6, label %3

3:                                                ; preds = %0
  %4 = call i64 @gtk_widget_get_type() #28
  %5 = call i64 @g_type_register_static_simple(i64 noundef %4, ptr noundef @.str.2, i32 noundef 824, ptr noundef @_ZL24cvImageWidget_class_initPvS_, i32 noundef 56, ptr noundef @_ZL18cvImageWidget_initP14_GTypeInstancePv, i32 noundef 0)
  store i64 %5, ptr @_ZZ22cvImageWidget_get_typevE10image_type, align 8, !tbaa !21
  br label %6

6:                                                ; preds = %3, %0
  %7 = load i64, ptr @_ZZ22cvImageWidget_get_typevE10image_type, align 8, !tbaa !21
  ret i64 %7
}

; Function Attrs: mustprogress uwtable
define internal noundef i32 @_ZL18cvImageWidget_drawP10_GtkWidgetP6_cairoPv(ptr noundef %0, ptr noundef %1, ptr noundef %2) #4 {
  %4 = alloca i32, align 4
  %5 = alloca ptr, align 8
  %6 = alloca ptr, align 8
  %7 = alloca ptr, align 8
  %8 = alloca ptr, align 8
  %9 = alloca ptr, align 8
  %10 = alloca i32, align 4
  %11 = alloca i32, align 4
  %12 = alloca i32, align 4
  %13 = alloca i32, align 4
  %14 = alloca ptr, align 8
  %15 = alloca i64, align 8
  %16 = alloca i32, align 4
  %17 = alloca i32, align 4
  %18 = alloca i32, align 4
  %19 = alloca i32, align 4
  %20 = alloca i32, align 4
  store ptr %0, ptr %5, align 8, !tbaa !158
  store ptr %1, ptr %6, align 8, !tbaa !274
  store ptr %2, ptr %7, align 8, !tbaa !31
  call void @llvm.lifetime.start.p0(i64 8, ptr %8) #3
  store ptr null, ptr %8, align 8, !tbaa !7
  call void @llvm.lifetime.start.p0(i64 8, ptr %9) #3
  store ptr null, ptr %9, align 8, !tbaa !276
  br label %21

21:                                               ; preds = %3
  call void @llvm.lifetime.start.p0(i64 4, ptr %10) #3
  %22 = load ptr, ptr %5, align 8, !tbaa !158
  %23 = icmp ne ptr %22, null
  br i1 %23, label %24, label %25

24:                                               ; preds = %21
  store i32 1, ptr %10, align 4, !tbaa !3
  br label %26

25:                                               ; preds = %21
  store i32 0, ptr %10, align 4, !tbaa !3
  br label %26

26:                                               ; preds = %25, %24
  %27 = load i32, ptr %10, align 4, !tbaa !3
  store i32 %27, ptr %11, align 4, !tbaa !3
  call void @llvm.lifetime.end.p0(i64 4, ptr %10) #3
  %28 = load i32, ptr %11, align 4, !tbaa !3
  %29 = sext i32 %28 to i64
  %30 = call i64 @llvm.expect.i64(i64 %29, i64 1)
  %31 = icmp ne i64 %30, 0
  br i1 %31, label %32, label %33

32:                                               ; preds = %26
  br label %34

33:                                               ; preds = %26
  call void @g_return_if_fail_warning(ptr noundef null, ptr noundef @__PRETTY_FUNCTION__._ZL18cvImageWidget_drawP10_GtkWidgetP6_cairoPv, ptr noundef @.str.20)
  store i32 0, ptr %4, align 4
  store i32 1, ptr %12, align 4
  br label %225

34:                                               ; preds = %32
  br label %35

35:                                               ; preds = %34
  br label %36

36:                                               ; preds = %35
  br label %37

37:                                               ; preds = %36
  call void @llvm.lifetime.start.p0(i64 4, ptr %13) #3
  call void @llvm.lifetime.start.p0(i64 8, ptr %14) #3
  %38 = load ptr, ptr %5, align 8, !tbaa !158
  store ptr %38, ptr %14, align 8, !tbaa !49
  call void @llvm.lifetime.start.p0(i64 8, ptr %15) #3
  %39 = call noundef i64 @_Z22cvImageWidget_get_typev()
  store i64 %39, ptr %15, align 8, !tbaa !21
  call void @llvm.lifetime.start.p0(i64 4, ptr %16) #3
  %40 = load ptr, ptr %14, align 8, !tbaa !49
  %41 = icmp ne ptr %40, null
  br i1 %41, label %43, label %42

42:                                               ; preds = %37
  store i32 0, ptr %16, align 4, !tbaa !3
  br label %62

43:                                               ; preds = %37
  %44 = load ptr, ptr %14, align 8, !tbaa !49
  %45 = getelementptr inbounds nuw %struct._GTypeInstance, ptr %44, i32 0, i32 0
  %46 = load ptr, ptr %45, align 8, !tbaa !183
  %47 = icmp ne ptr %46, null
  br i1 %47, label %48, label %57

48:                                               ; preds = %43
  %49 = load ptr, ptr %14, align 8, !tbaa !49
  %50 = getelementptr inbounds nuw %struct._GTypeInstance, ptr %49, i32 0, i32 0
  %51 = load ptr, ptr %50, align 8, !tbaa !183
  %52 = getelementptr inbounds nuw %struct._GTypeClass, ptr %51, i32 0, i32 0
  %53 = load i64, ptr %52, align 8, !tbaa !184
  %54 = load i64, ptr %15, align 8, !tbaa !21
  %55 = icmp eq i64 %53, %54
  br i1 %55, label %56, label %57

56:                                               ; preds = %48
  store i32 1, ptr %16, align 4, !tbaa !3
  br label %61

57:                                               ; preds = %48, %43
  %58 = load ptr, ptr %14, align 8, !tbaa !49
  %59 = load i64, ptr %15, align 8, !tbaa !21
  %60 = call i32 @g_type_check_instance_is_a(ptr noundef %58, i64 noundef %59) #30
  store i32 %60, ptr %16, align 4, !tbaa !3
  br label %61

61:                                               ; preds = %57, %56
  br label %62

62:                                               ; preds = %61, %42
  %63 = load i32, ptr %16, align 4, !tbaa !3
  store i32 %63, ptr %17, align 4, !tbaa !3
  call void @llvm.lifetime.end.p0(i64 4, ptr %16) #3
  call void @llvm.lifetime.end.p0(i64 8, ptr %15) #3
  call void @llvm.lifetime.end.p0(i64 8, ptr %14) #3
  %64 = load i32, ptr %17, align 4, !tbaa !3
  %65 = icmp ne i32 %64, 0
  br i1 %65, label %66, label %67

66:                                               ; preds = %62
  store i32 1, ptr %13, align 4, !tbaa !3
  br label %68

67:                                               ; preds = %62
  store i32 0, ptr %13, align 4, !tbaa !3
  br label %68

68:                                               ; preds = %67, %66
  %69 = load i32, ptr %13, align 4, !tbaa !3
  store i32 %69, ptr %18, align 4, !tbaa !3
  call void @llvm.lifetime.end.p0(i64 4, ptr %13) #3
  %70 = load i32, ptr %18, align 4, !tbaa !3
  %71 = sext i32 %70 to i64
  %72 = call i64 @llvm.expect.i64(i64 %71, i64 1)
  %73 = icmp ne i64 %72, 0
  br i1 %73, label %74, label %75

74:                                               ; preds = %68
  br label %76

75:                                               ; preds = %68
  call void @g_return_if_fail_warning(ptr noundef null, ptr noundef @__PRETTY_FUNCTION__._ZL18cvImageWidget_drawP10_GtkWidgetP6_cairoPv, ptr noundef @.str.21)
  store i32 0, ptr %4, align 4
  store i32 1, ptr %12, align 4
  br label %225

76:                                               ; preds = %74
  br label %77

77:                                               ; preds = %76
  br label %78

78:                                               ; preds = %77
  %79 = load ptr, ptr %5, align 8, !tbaa !158
  %80 = call noundef i64 @_Z22cvImageWidget_get_typev()
  %81 = call ptr @g_type_check_instance_cast(ptr noundef %79, i64 noundef %80)
  store ptr %81, ptr %8, align 8, !tbaa !7
  %82 = load ptr, ptr %8, align 8, !tbaa !7
  %83 = getelementptr inbounds nuw %struct._CvImageWidget, ptr %82, i32 0, i32 2
  %84 = load ptr, ptr %83, align 8, !tbaa !19
  %85 = icmp ne ptr %84, null
  br i1 %85, label %86, label %160

86:                                               ; preds = %78
  call void @llvm.lifetime.start.p0(i64 4, ptr %19) #3
  %87 = load ptr, ptr %5, align 8, !tbaa !158
  %88 = call i32 @gtk_widget_get_allocated_width(ptr noundef %87)
  %89 = load ptr, ptr %8, align 8, !tbaa !7
  %90 = getelementptr inbounds nuw %struct._CvImageWidget, ptr %89, i32 0, i32 2
  %91 = load ptr, ptr %90, align 8, !tbaa !19
  %92 = getelementptr inbounds nuw %struct.CvMat, ptr %91, i32 0, i32 6
  %93 = load i32, ptr %92, align 4, !tbaa !99
  %94 = sub nsw i32 %88, %93
  %95 = sdiv i32 %94, 2
  store i32 %95, ptr %19, align 4, !tbaa !3
  call void @llvm.lifetime.start.p0(i64 4, ptr %20) #3
  %96 = load ptr, ptr %5, align 8, !tbaa !158
  %97 = call i32 @gtk_widget_get_allocated_height(ptr noundef %96)
  %98 = load ptr, ptr %8, align 8, !tbaa !7
  %99 = getelementptr inbounds nuw %struct._CvImageWidget, ptr %98, i32 0, i32 2
  %100 = load ptr, ptr %99, align 8, !tbaa !19
  %101 = getelementptr inbounds nuw %struct.CvMat, ptr %100, i32 0, i32 5
  %102 = load i32, ptr %101, align 8, !tbaa !99
  %103 = sub nsw i32 %97, %102
  %104 = sdiv i32 %103, 2
  store i32 %104, ptr %20, align 4, !tbaa !3
  %105 = load ptr, ptr %8, align 8, !tbaa !7
  %106 = getelementptr inbounds nuw %struct._CvImageWidget, ptr %105, i32 0, i32 2
  %107 = load ptr, ptr %106, align 8, !tbaa !19
  %108 = getelementptr inbounds nuw %struct.CvMat, ptr %107, i32 0, i32 4
  %109 = load ptr, ptr %108, align 8, !tbaa !99
  %110 = load ptr, ptr %8, align 8, !tbaa !7
  %111 = getelementptr inbounds nuw %struct._CvImageWidget, ptr %110, i32 0, i32 2
  %112 = load ptr, ptr %111, align 8, !tbaa !19
  %113 = getelementptr inbounds nuw %struct.CvMat, ptr %112, i32 0, i32 6
  %114 = load i32, ptr %113, align 4, !tbaa !99
  %115 = load ptr, ptr %5, align 8, !tbaa !158
  %116 = call i32 @gtk_widget_get_allocated_width(ptr noundef %115)
  %117 = icmp slt i32 %114, %116
  br i1 %117, label %118, label %124

118:                                              ; preds = %86
  %119 = load ptr, ptr %8, align 8, !tbaa !7
  %120 = getelementptr inbounds nuw %struct._CvImageWidget, ptr %119, i32 0, i32 2
  %121 = load ptr, ptr %120, align 8, !tbaa !19
  %122 = getelementptr inbounds nuw %struct.CvMat, ptr %121, i32 0, i32 6
  %123 = load i32, ptr %122, align 4, !tbaa !99
  br label %127

124:                                              ; preds = %86
  %125 = load ptr, ptr %5, align 8, !tbaa !158
  %126 = call i32 @gtk_widget_get_allocated_width(ptr noundef %125)
  br label %127

127:                                              ; preds = %124, %118
  %128 = phi i32 [ %123, %118 ], [ %126, %124 ]
  %129 = load ptr, ptr %8, align 8, !tbaa !7
  %130 = getelementptr inbounds nuw %struct._CvImageWidget, ptr %129, i32 0, i32 2
  %131 = load ptr, ptr %130, align 8, !tbaa !19
  %132 = getelementptr inbounds nuw %struct.CvMat, ptr %131, i32 0, i32 5
  %133 = load i32, ptr %132, align 8, !tbaa !99
  %134 = load ptr, ptr %5, align 8, !tbaa !158
  %135 = call i32 @gtk_widget_get_allocated_height(ptr noundef %134)
  %136 = icmp slt i32 %133, %135
  br i1 %136, label %137, label %143

137:                                              ; preds = %127
  %138 = load ptr, ptr %8, align 8, !tbaa !7
  %139 = getelementptr inbounds nuw %struct._CvImageWidget, ptr %138, i32 0, i32 2
  %140 = load ptr, ptr %139, align 8, !tbaa !19
  %141 = getelementptr inbounds nuw %struct.CvMat, ptr %140, i32 0, i32 5
  %142 = load i32, ptr %141, align 8, !tbaa !99
  br label %146

143:                                              ; preds = %127
  %144 = load ptr, ptr %5, align 8, !tbaa !158
  %145 = call i32 @gtk_widget_get_allocated_height(ptr noundef %144)
  br label %146

146:                                              ; preds = %143, %137
  %147 = phi i32 [ %142, %137 ], [ %145, %143 ]
  %148 = load ptr, ptr %8, align 8, !tbaa !7
  %149 = getelementptr inbounds nuw %struct._CvImageWidget, ptr %148, i32 0, i32 2
  %150 = load ptr, ptr %149, align 8, !tbaa !19
  %151 = getelementptr inbounds nuw %struct.CvMat, ptr %150, i32 0, i32 1
  %152 = load i32, ptr %151, align 4, !tbaa !278
  %153 = call ptr @gdk_pixbuf_new_from_data(ptr noundef %109, i32 noundef 0, i32 noundef 0, i32 noundef 8, i32 noundef %128, i32 noundef %147, i32 noundef %152, ptr noundef null, ptr noundef null)
  store ptr %153, ptr %9, align 8, !tbaa !276
  %154 = load ptr, ptr %6, align 8, !tbaa !274
  %155 = load ptr, ptr %9, align 8, !tbaa !276
  %156 = load i32, ptr %19, align 4, !tbaa !3
  %157 = sitofp i32 %156 to double
  %158 = load i32, ptr %20, align 4, !tbaa !3
  %159 = sitofp i32 %158 to double
  call void @gdk_cairo_set_source_pixbuf(ptr noundef %154, ptr noundef %155, double noundef %157, double noundef %159)
  call void @llvm.lifetime.end.p0(i64 4, ptr %20) #3
  call void @llvm.lifetime.end.p0(i64 4, ptr %19) #3
  br label %218

160:                                              ; preds = %78
  %161 = load ptr, ptr %8, align 8, !tbaa !7
  %162 = getelementptr inbounds nuw %struct._CvImageWidget, ptr %161, i32 0, i32 1
  %163 = load ptr, ptr %162, align 8, !tbaa !10
  %164 = icmp ne ptr %163, null
  br i1 %164, label %165, label %217

165:                                              ; preds = %160
  %166 = load ptr, ptr %8, align 8, !tbaa !7
  %167 = getelementptr inbounds nuw %struct._CvImageWidget, ptr %166, i32 0, i32 1
  %168 = load ptr, ptr %167, align 8, !tbaa !10
  %169 = getelementptr inbounds nuw %struct.CvMat, ptr %168, i32 0, i32 4
  %170 = load ptr, ptr %169, align 8, !tbaa !99
  %171 = load ptr, ptr %8, align 8, !tbaa !7
  %172 = getelementptr inbounds nuw %struct._CvImageWidget, ptr %171, i32 0, i32 1
  %173 = load ptr, ptr %172, align 8, !tbaa !10
  %174 = getelementptr inbounds nuw %struct.CvMat, ptr %173, i32 0, i32 6
  %175 = load i32, ptr %174, align 4, !tbaa !99
  %176 = load ptr, ptr %5, align 8, !tbaa !158
  %177 = call i32 @gtk_widget_get_allocated_width(ptr noundef %176)
  %178 = icmp slt i32 %175, %177
  br i1 %178, label %179, label %185

179:                                              ; preds = %165
  %180 = load ptr, ptr %8, align 8, !tbaa !7
  %181 = getelementptr inbounds nuw %struct._CvImageWidget, ptr %180, i32 0, i32 1
  %182 = load ptr, ptr %181, align 8, !tbaa !10
  %183 = getelementptr inbounds nuw %struct.CvMat, ptr %182, i32 0, i32 6
  %184 = load i32, ptr %183, align 4, !tbaa !99
  br label %188

185:                                              ; preds = %165
  %186 = load ptr, ptr %5, align 8, !tbaa !158
  %187 = call i32 @gtk_widget_get_allocated_width(ptr noundef %186)
  br label %188

188:                                              ; preds = %185, %179
  %189 = phi i32 [ %184, %179 ], [ %187, %185 ]
  %190 = load ptr, ptr %8, align 8, !tbaa !7
  %191 = getelementptr inbounds nuw %struct._CvImageWidget, ptr %190, i32 0, i32 1
  %192 = load ptr, ptr %191, align 8, !tbaa !10
  %193 = getelementptr inbounds nuw %struct.CvMat, ptr %192, i32 0, i32 5
  %194 = load i32, ptr %193, align 8, !tbaa !99
  %195 = load ptr, ptr %5, align 8, !tbaa !158
  %196 = call i32 @gtk_widget_get_allocated_height(ptr noundef %195)
  %197 = icmp slt i32 %194, %196
  br i1 %197, label %198, label %204

198:                                              ; preds = %188
  %199 = load ptr, ptr %8, align 8, !tbaa !7
  %200 = getelementptr inbounds nuw %struct._CvImageWidget, ptr %199, i32 0, i32 1
  %201 = load ptr, ptr %200, align 8, !tbaa !10
  %202 = getelementptr inbounds nuw %struct.CvMat, ptr %201, i32 0, i32 5
  %203 = load i32, ptr %202, align 8, !tbaa !99
  br label %207

204:                                              ; preds = %188
  %205 = load ptr, ptr %5, align 8, !tbaa !158
  %206 = call i32 @gtk_widget_get_allocated_height(ptr noundef %205)
  br label %207

207:                                              ; preds = %204, %198
  %208 = phi i32 [ %203, %198 ], [ %206, %204 ]
  %209 = load ptr, ptr %8, align 8, !tbaa !7
  %210 = getelementptr inbounds nuw %struct._CvImageWidget, ptr %209, i32 0, i32 1
  %211 = load ptr, ptr %210, align 8, !tbaa !10
  %212 = getelementptr inbounds nuw %struct.CvMat, ptr %211, i32 0, i32 1
  %213 = load i32, ptr %212, align 4, !tbaa !278
  %214 = call ptr @gdk_pixbuf_new_from_data(ptr noundef %170, i32 noundef 0, i32 noundef 0, i32 noundef 8, i32 noundef %189, i32 noundef %208, i32 noundef %213, ptr noundef null, ptr noundef null)
  store ptr %214, ptr %9, align 8, !tbaa !276
  %215 = load ptr, ptr %6, align 8, !tbaa !274
  %216 = load ptr, ptr %9, align 8, !tbaa !276
  call void @gdk_cairo_set_source_pixbuf(ptr noundef %215, ptr noundef %216, double noundef 0.000000e+00, double noundef 0.000000e+00)
  br label %217

217:                                              ; preds = %207, %160
  br label %218

218:                                              ; preds = %217, %146
  %219 = load ptr, ptr %6, align 8, !tbaa !274
  call void @cairo_paint(ptr noundef %219)
  %220 = load ptr, ptr %9, align 8, !tbaa !276
  %221 = icmp ne ptr %220, null
  br i1 %221, label %222, label %224

222:                                              ; preds = %218
  %223 = load ptr, ptr %9, align 8, !tbaa !276
  call void @g_object_unref(ptr noundef %223)
  br label %224

224:                                              ; preds = %222, %218
  store i32 1, ptr %4, align 4
  store i32 1, ptr %12, align 4
  br label %225

225:                                              ; preds = %224, %75, %33
  call void @llvm.lifetime.end.p0(i64 8, ptr %9) #3
  call void @llvm.lifetime.end.p0(i64 8, ptr %8) #3
  %226 = load i32, ptr %4, align 4
  ret i32 %226
}