; Function Attrs: mustprogress uwtable
define internal noundef range(i32 0, 2) i32 @_ZL18cvImageWidget_drawP10_GtkWidgetP6_cairoPv(ptr noundef %0, ptr noundef %1, ptr readnone captures(none) %2) #3 {
  %.not = icmp eq ptr %0, null
  br i1 %.not, label %4, label %5, !prof !60

4:                                                ; preds = %3
  tail call void @g_return_if_fail_warning(ptr noundef null, ptr noundef nonnull @__PRETTY_FUNCTION__._ZL18cvImageWidget_drawP10_GtkWidgetP6_cairoPv, ptr noundef nonnull @.str.20)
  br label %109

5:                                                ; preds = %3
  %6 = load i64, ptr @_ZZ22cvImageWidget_get_typevE10image_type, align 8, !tbaa !3
  %.not.i = icmp eq i64 %6, 0
  br i1 %.not.i, label %7, label %_Z22cvImageWidget_get_typev.exit

7:                                                ; preds = %5
  %8 = tail call i64 @gtk_widget_get_type() #30
  %9 = tail call i64 @g_type_register_static_simple(i64 noundef %8, ptr noundef nonnull @.str.2, i32 noundef 824, ptr noundef nonnull @_ZL24cvImageWidget_class_initPvS_, i32 noundef 56, ptr noundef nonnull @_ZL18cvImageWidget_initP14_GTypeInstancePv, i32 noundef 0)
  store i64 %9, ptr @_ZZ22cvImageWidget_get_typevE10image_type, align 8, !tbaa !3
  br label %_Z22cvImageWidget_get_typev.exit

_Z22cvImageWidget_get_typev.exit:                 ; preds = %5, %7
  %10 = phi i64 [ %9, %7 ], [ %6, %5 ]
  %11 = load ptr, ptr %0, align 8, !tbaa !172
  %.not58 = icmp eq ptr %11, null
  br i1 %.not58, label %15, label %12

12:                                               ; preds = %_Z22cvImageWidget_get_typev.exit
  %13 = load i64, ptr %11, align 8, !tbaa !173
  %14 = icmp eq i64 %13, %10
  br i1 %14, label %.critedge, label %15

15:                                               ; preds = %12, %_Z22cvImageWidget_get_typev.exit
  %16 = tail call i32 @g_type_check_instance_is_a(ptr noundef nonnull %0, i64 noundef %10) #36
  %17 = icmp eq i32 %16, 0
  br i1 %17, label %18, label %.critedge, !prof !60

18:                                               ; preds = %15
  tail call void @g_return_if_fail_warning(ptr noundef null, ptr noundef nonnull @__PRETTY_FUNCTION__._ZL18cvImageWidget_drawP10_GtkWidgetP6_cairoPv, ptr noundef nonnull @.str.21)
  br label %109

.critedge:                                        ; preds = %12, %15
  %.not.i64 = icmp eq i64 %10, 0
  br i1 %.not.i64, label %19, label %_Z22cvImageWidget_get_typev.exit65

19:                                               ; preds = %.critedge
  %20 = tail call i64 @gtk_widget_get_type() #30
  %21 = tail call i64 @g_type_register_static_simple(i64 noundef %20, ptr noundef nonnull @.str.2, i32 noundef 824, ptr noundef nonnull @_ZL24cvImageWidget_class_initPvS_, i32 noundef 56, ptr noundef nonnull @_ZL18cvImageWidget_initP14_GTypeInstancePv, i32 noundef 0)
  store i64 %21, ptr @_ZZ22cvImageWidget_get_typevE10image_type, align 8, !tbaa !3
  br label %_Z22cvImageWidget_get_typev.exit65

_Z22cvImageWidget_get_typev.exit65:               ; preds = %.critedge, %19
  %22 = phi i64 [ %21, %19 ], [ %10, %.critedge ]
  %23 = tail call ptr @g_type_check_instance_cast(ptr noundef nonnull %0, i64 noundef %22)
  %24 = getelementptr inbounds nuw i8, ptr %23, i64 40
  %25 = load ptr, ptr %24, align 8, !tbaa !80
  %.not61 = icmp eq ptr %25, null
  br i1 %.not61, label %72, label %26

26:                                               ; preds = %_Z22cvImageWidget_get_typev.exit65
  %27 = tail call i32 @gtk_widget_get_allocated_width(ptr noundef nonnull %0)
  %28 = load ptr, ptr %24, align 8, !tbaa !80
  %29 = getelementptr inbounds nuw i8, ptr %28, i64 36
  %30 = load i32, ptr %29, align 4, !tbaa !59
  %31 = sub nsw i32 %27, %30
  %32 = sdiv i32 %31, 2
  %33 = tail call i32 @gtk_widget_get_allocated_height(ptr noundef nonnull %0)
  %34 = load ptr, ptr %24, align 8, !tbaa !80
  %35 = getelementptr inbounds nuw i8, ptr %34, i64 32
  %36 = load i32, ptr %35, align 8, !tbaa !59
  %37 = sub nsw i32 %33, %36
  %38 = sdiv i32 %37, 2
  %39 = getelementptr inbounds nuw i8, ptr %34, i64 24
  %40 = load ptr, ptr %39, align 8, !tbaa !59
  %41 = getelementptr inbounds nuw i8, ptr %34, i64 36
  %42 = load i32, ptr %41, align 4, !tbaa !59
  %43 = tail call i32 @gtk_widget_get_allocated_width(ptr noundef nonnull %0)
  %44 = icmp slt i32 %42, %43
  br i1 %44, label %45, label %49

45:                                               ; preds = %26
  %46 = load ptr, ptr %24, align 8, !tbaa !80
  %47 = getelementptr inbounds nuw i8, ptr %46, i64 36
  %48 = load i32, ptr %47, align 4, !tbaa !59
  br label %51

49:                                               ; preds = %26
  %50 = tail call i32 @gtk_widget_get_allocated_width(ptr noundef nonnull %0)
  %.pre = load ptr, ptr %24, align 8, !tbaa !80
  br label %51

51:                                               ; preds = %49, %45
  %52 = phi ptr [ %46, %45 ], [ %.pre, %49 ]
  %53 = phi i32 [ %48, %45 ], [ %50, %49 ]
  %54 = getelementptr inbounds nuw i8, ptr %52, i64 32
  %55 = load i32, ptr %54, align 8, !tbaa !59
  %56 = tail call i32 @gtk_widget_get_allocated_height(ptr noundef nonnull %0)
  %57 = icmp slt i32 %55, %56
  br i1 %57, label %58, label %62

58:                                               ; preds = %51
  %59 = load ptr, ptr %24, align 8, !tbaa !80
  %60 = getelementptr inbounds nuw i8, ptr %59, i64 32
  %61 = load i32, ptr %60, align 8, !tbaa !59
  br label %64

62:                                               ; preds = %51
  %63 = tail call i32 @gtk_widget_get_allocated_height(ptr noundef nonnull %0)
  %.pre68 = load ptr, ptr %24, align 8, !tbaa !80
  br label %64

64:                                               ; preds = %62, %58
  %65 = phi ptr [ %59, %58 ], [ %.pre68, %62 ]
  %66 = phi i32 [ %61, %58 ], [ %63, %62 ]
  %67 = getelementptr inbounds nuw i8, ptr %65, i64 4
  %68 = load i32, ptr %67, align 4, !tbaa !241
  %69 = tail call ptr @gdk_pixbuf_new_from_data(ptr noundef %40, i32 noundef 0, i32 noundef 0, i32 noundef 8, i32 noundef %53, i32 noundef %66, i32 noundef %68, ptr noundef null, ptr noundef null)
  %70 = sitofp i32 %32 to double
  %71 = sitofp i32 %38 to double
  tail call void @gdk_cairo_set_source_pixbuf(ptr noundef %1, ptr noundef %69, double noundef %70, double noundef %71)
  br label %107

72:                                               ; preds = %_Z22cvImageWidget_get_typev.exit65
  %73 = getelementptr inbounds nuw i8, ptr %23, i64 32
  %74 = load ptr, ptr %73, align 8, !tbaa !81
  %.not62 = icmp eq ptr %74, null
  br i1 %.not62, label %.thread, label %75

.thread:                                          ; preds = %72
  tail call void @cairo_paint(ptr noundef %1)
  br label %109

75:                                               ; preds = %72
  %76 = getelementptr inbounds nuw i8, ptr %74, i64 24
  %77 = load ptr, ptr %76, align 8, !tbaa !59
  %78 = getelementptr inbounds nuw i8, ptr %74, i64 36
  %79 = load i32, ptr %78, align 4, !tbaa !59
  %80 = tail call i32 @gtk_widget_get_allocated_width(ptr noundef nonnull %0)
  %81 = icmp slt i32 %79, %80
  br i1 %81, label %82, label %86

82:                                               ; preds = %75
  %83 = load ptr, ptr %73, align 8, !tbaa !81
  %84 = getelementptr inbounds nuw i8, ptr %83, i64 36
  %85 = load i32, ptr %84, align 4, !tbaa !59
  br label %88

86:                                               ; preds = %75
  %87 = tail call i32 @gtk_widget_get_allocated_width(ptr noundef nonnull %0)
  %.pre69 = load ptr, ptr %73, align 8, !tbaa !81
  br label %88

88:                                               ; preds = %86, %82
  %89 = phi ptr [ %83, %82 ], [ %.pre69, %86 ]
  %90 = phi i32 [ %85, %82 ], [ %87, %86 ]
  %91 = getelementptr inbounds nuw i8, ptr %89, i64 32
  %92 = load i32, ptr %91, align 8, !tbaa !59
  %93 = tail call i32 @gtk_widget_get_allocated_height(ptr noundef nonnull %0)
  %94 = icmp slt i32 %92, %93
  br i1 %94, label %95, label %99

95:                                               ; preds = %88
  %96 = load ptr, ptr %73, align 8, !tbaa !81
  %97 = getelementptr inbounds nuw i8, ptr %96, i64 32
  %98 = load i32, ptr %97, align 8, !tbaa !59
  br label %101

99:                                               ; preds = %88
  %100 = tail call i32 @gtk_widget_get_allocated_height(ptr noundef nonnull %0)
  %.pre70 = load ptr, ptr %73, align 8, !tbaa !81
  br label %101

101:                                              ; preds = %99, %95
  %102 = phi ptr [ %96, %95 ], [ %.pre70, %99 ]
  %103 = phi i32 [ %98, %95 ], [ %100, %99 ]
  %104 = getelementptr inbounds nuw i8, ptr %102, i64 4
  %105 = load i32, ptr %104, align 4, !tbaa !241
  %106 = tail call ptr @gdk_pixbuf_new_from_data(ptr noundef %77, i32 noundef 0, i32 noundef 0, i32 noundef 8, i32 noundef %90, i32 noundef %103, i32 noundef %105, ptr noundef null, ptr noundef null)
  tail call void @gdk_cairo_set_source_pixbuf(ptr noundef %1, ptr noundef %106, double noundef 0.000000e+00, double noundef 0.000000e+00)
  br label %107

107:                                              ; preds = %101, %64
  %.050 = phi ptr [ %69, %64 ], [ %106, %101 ]
  tail call void @cairo_paint(ptr noundef %1)
  %.not63 = icmp eq ptr %.050, null
  br i1 %.not63, label %109, label %108

108:                                              ; preds = %107
  tail call void @g_object_unref(ptr noundef nonnull %.050)
  br label %109

109:                                              ; preds = %.thread, %107, %108, %18, %4
  %.0 = phi i32 [ 0, %18 ], [ 0, %4 ], [ 1, %108 ], [ 1, %107 ], [ 1, %.thread ]
  ret i32 %.0
}